target datalayout = "e-m:e-p270:32:32-p271:32:32-p272:64:64-i64:64-i128:128-f80:128-n8:16:32:64-S128"
target triple = "x86_64-pc-linux-gnu"

%struct.CONF_VALUE = type { ptr, ptr, ptr }
%struct.NAME_CONSTRAINTS_st = type { ptr, ptr }
%struct.GENERAL_SUBTREE_st = type { ptr, ptr, ptr }

@GENERAL_SUBTREE_it.local_it = internal constant { i8, [7 x i8], i64, ptr, i64, ptr, i64, ptr } { i8 1, [7 x i8] zeroinitializer, i64 16, ptr @GENERAL_SUBTREE_seq_tt, i64 3, ptr null, i64 24, ptr @.str }, align 8
@NAME_CONSTRAINTS_it.local_it = internal constant { i8, [7 x i8], i64, ptr, i64, ptr, i64, ptr } { i8 1, [7 x i8] zeroinitializer, i64 16, ptr @NAME_CONSTRAINTS_seq_tt, i64 2, ptr null, i64 16, ptr @.str.1 }, align 8
@.str.2 = private unnamed_addr constant [34 x i8] c"../openssl/crypto/x509/v3_ncons.c\00", align 1
@__func__.v2i_NAME_CONSTRAINTS = private unnamed_addr constant [21 x i8] c"v2i_NAME_CONSTRAINTS\00", align 1
@.str.8 = private unnamed_addr constant [10 x i8] c"permitted\00", align 1
@.str.9 = private unnamed_addr constant [9 x i8] c"excluded\00", align 1

; Function Attrs: nounwind uwtable
define ptr @GENERAL_SUBTREE_it() #0 {
  ret ptr @GENERAL_SUBTREE_it.local_it
}

; Function Attrs: nounwind uwtable
define ptr @NAME_CONSTRAINTS_it() #0 {
  ret ptr @NAME_CONSTRAINTS_it.local_it
}

; Function Attrs: nounwind uwtable
define void @GENERAL_SUBTREE_free(ptr noundef %0) #0 {
  %2 = alloca ptr, align 8
  store ptr %0, ptr %2, align 8, !tbaa !16
  %3 = load ptr, ptr %2, align 8, !tbaa !16
  %4 = call ptr @GENERAL_SUBTREE_it()
  call void @ASN1_item_free(ptr noundef %3, ptr noundef %4)
  ret void
}

; Function Attrs: nounwind uwtable
define void @NAME_CONSTRAINTS_free(ptr noundef %0) #0 {
  %2 = alloca ptr, align 8
  store ptr %0, ptr %2, align 8, !tbaa !14
  %3 = load ptr, ptr %2, align 8, !tbaa !14
  %4 = call ptr @NAME_CONSTRAINTS_it()
  call void @ASN1_item_free(ptr noundef %3, ptr noundef %4)
  ret void
}

; Function Attrs: inlinehint nounwind uwtable
define internal ptr @ossl_check_GENERAL_SUBTREE_type(ptr noundef %0) #3 {
  %2 = alloca ptr, align 8
  store ptr %0, ptr %2, align 8, !tbaa !16
  %3 = load ptr, ptr %2, align 8, !tbaa !16
  ret ptr %3
}

; Function Attrs: inlinehint nounwind uwtable
define internal ptr @ossl_check_GENERAL_SUBTREE_sk_type(ptr noundef %0) #3 {
  %2 = alloca ptr, align 8
  store ptr %0, ptr %2, align 8, !tbaa !30
  %3 = load ptr, ptr %2, align 8, !tbaa !30
  ret ptr %3
}

; Function Attrs: nounwind uwtable
define ptr @GENERAL_SUBTREE_new() #0 {
  %1 = call ptr @GENERAL_SUBTREE_it()
  %2 = call ptr @ASN1_item_new(ptr noundef %1)
  ret ptr %2
}

; Function Attrs: inlinehint nounwind uwtable
define internal ptr @ossl_check_const_CONF_VALUE_sk_type(ptr noundef %0) #3 {
  %2 = alloca ptr, align 8
  store ptr %0, ptr %2, align 8, !tbaa !10
  %3 = load ptr, ptr %2, align 8, !tbaa !10
  ret ptr %3
}

; Function Attrs: nounwind uwtable
define ptr @NAME_CONSTRAINTS_new() #0 {
  %1 = call ptr @NAME_CONSTRAINTS_it()
  %2 = call ptr @ASN1_item_new(ptr noundef %1)
  ret ptr %2
}

; Function Attrs: nounwind uwtable
define internal ptr @v2i_NAME_CONSTRAINTS(ptr noundef %0, ptr noundef %1, ptr noundef %2) #0 {
  %4 = alloca ptr, align 8
  %5 = alloca ptr, align 8
  %6 = alloca ptr, align 8
  %7 = alloca ptr, align 8
  %8 = alloca i32, align 4
  %9 = alloca %struct.CONF_VALUE, align 8
  %10 = alloca ptr, align 8
  %11 = alloca ptr, align 8
  %12 = alloca ptr, align 8
  %13 = alloca ptr, align 8
  %14 = alloca i32, align 4
  store ptr %0, ptr %5, align 8, !tbaa !3
  store ptr %1, ptr %6, align 8, !tbaa !8
  store ptr %2, ptr %7, align 8, !tbaa !10
  call void @llvm.lifetime.start.p0(i64 4, ptr %8) #6
  call void @llvm.lifetime.start.p0(i64 24, ptr %9) #6
  call void @llvm.lifetime.start.p0(i64 8, ptr %10) #6
  call void @llvm.lifetime.start.p0(i64 8, ptr %11) #6
  store ptr null, ptr %11, align 8, !tbaa !12
  call void @llvm.lifetime.start.p0(i64 8, ptr %12) #6
  store ptr null, ptr %12, align 8, !tbaa !14
  call void @llvm.lifetime.start.p0(i64 8, ptr %13) #6
  store ptr null, ptr %13, align 8, !tbaa !16
  %15 = call ptr @NAME_CONSTRAINTS_new()
  store ptr %15, ptr %12, align 8, !tbaa !14
  %16 = load ptr, ptr %12, align 8, !tbaa !14
  %17 = icmp eq ptr %16, null
  br i1 %17, label %18, label %19

18:                                               ; preds = %3
  call void @ERR_new()
  call void @ERR_set_debug(ptr noundef @.str.2, i32 noundef 159, ptr noundef @__func__.v2i_NAME_CONSTRAINTS)
  call void (i32, i32, ptr, ...) @ERR_set_error(i32 noundef 34, i32 noundef 524301, ptr noundef null)
  br label %120

19:                                               ; preds = %3
  store i32 0, ptr %8, align 4, !tbaa !18
  br label %20

20:                                               ; preds = %115, %19
  %21 = load i32, ptr %8, align 4, !tbaa !18
  %22 = load ptr, ptr %7, align 8, !tbaa !10
  %23 = call ptr @ossl_check_const_CONF_VALUE_sk_type(ptr noundef %22)
  %24 = call i32 @OPENSSL_sk_num(ptr noundef %23)
  %25 = icmp slt i32 %21, %24
  br i1 %25, label %26, label %118

26:                                               ; preds = %20
  %27 = load ptr, ptr %7, align 8, !tbaa !10
  %28 = call ptr @ossl_check_const_CONF_VALUE_sk_type(ptr noundef %27)
  %29 = load i32, ptr %8, align 4, !tbaa !18
  %30 = call ptr @OPENSSL_sk_value(ptr noundef %28, i32 noundef %29)
  store ptr %30, ptr %10, align 8, !tbaa !20
  %31 = load ptr, ptr %10, align 8, !tbaa !20
  %32 = getelementptr inbounds nuw %struct.CONF_VALUE, ptr %31, i32 0, i32 1
  %33 = load ptr, ptr %32, align 8, !tbaa !21
  %34 = call i32 @strncmp(ptr noundef %33, ptr noundef @.str.8, i64 noundef 9) #7
  %35 = icmp eq i32 %34, 0
  br i1 %35, label %36, label %52

36:                                               ; preds = %26
  %37 = load ptr, ptr %10, align 8, !tbaa !20
  %38 = getelementptr inbounds nuw %struct.CONF_VALUE, ptr %37, i32 0, i32 1
  %39 = load ptr, ptr %38, align 8, !tbaa !21
  %40 = getelementptr inbounds i8, ptr %39, i64 9
  %41 = load i8, ptr %40, align 1, !tbaa !24
  %42 = sext i8 %41 to i32
  %43 = icmp ne i32 %42, 0
  br i1 %43, label %44, label %52

44:                                               ; preds = %36
  %45 = load ptr, ptr %12, align 8, !tbaa !14
  %46 = getelementptr inbounds nuw %struct.NAME_CONSTRAINTS_st, ptr %45, i32 0, i32 0
  store ptr %46, ptr %11, align 8, !tbaa !12
  %47 = load ptr, ptr %10, align 8, !tbaa !20
  %48 = getelementptr inbounds nuw %struct.CONF_VALUE, ptr %47, i32 0, i32 1
  %49 = load ptr, ptr %48, align 8, !tbaa !21
  %50 = getelementptr inbounds i8, ptr %49, i64 10
  %51 = getelementptr inbounds nuw %struct.CONF_VALUE, ptr %9, i32 0, i32 1
  store ptr %50, ptr %51, align 8, !tbaa !21
  br label %76

52:                                               ; preds = %36, %26
  %53 = load ptr, ptr %10, align 8, !tbaa !20
  %54 = getelementptr inbounds nuw %struct.CONF_VALUE, ptr %53, i32 0, i32 1
  %55 = load ptr, ptr %54, align 8, !tbaa !21
  %56 = call i32 @strncmp(ptr noundef %55, ptr noundef @.str.9, i64 noundef 8) #7
  %57 = icmp eq i32 %56, 0
  br i1 %57, label %58, label %74

58:                                               ; preds = %52
  %59 = load ptr, ptr %10, align 8, !tbaa !20
  %60 = getelementptr inbounds nuw %struct.CONF_VALUE, ptr %59, i32 0, i32 1
  %61 = load ptr, ptr %60, align 8, !tbaa !21
  %62 = getelementptr inbounds i8, ptr %61, i64 8
  %63 = load i8, ptr %62, align 1, !tbaa !24
  %64 = sext i8 %63 to i32
  %65 = icmp ne i32 %64, 0
  br i1 %65, label %66, label %74

66:                                               ; preds = %58
  %67 = load ptr, ptr %12, align 8, !tbaa !14
  %68 = getelementptr inbounds nuw %struct.NAME_CONSTRAINTS_st, ptr %67, i32 0, i32 1
  store ptr %68, ptr %11, align 8, !tbaa !12
  %69 = load ptr, ptr %10, align 8, !tbaa !20
  %70 = getelementptr inbounds nuw %struct.CONF_VALUE, ptr %69, i32 0, i32 1
  %71 = load ptr, ptr %70, align 8, !tbaa !21
  %72 = getelementptr inbounds i8, ptr %71, i64 9
  %73 = getelementptr inbounds nuw %struct.CONF_VALUE, ptr %9, i32 0, i32 1
  store ptr %72, ptr %73, align 8, !tbaa !21
  br label %75

74:                                               ; preds = %58, %52
  call void @ERR_new()
  call void @ERR_set_debug(ptr noundef @.str.2, i32 noundef 171, ptr noundef @__func__.v2i_NAME_CONSTRAINTS)
  call void (i32, i32, ptr, ...) @ERR_set_error(i32 noundef 34, i32 noundef 143, ptr noundef null)
  br label %120

75:                                               ; preds = %66
  br label %76

76:                                               ; preds = %75, %44
  %77 = load ptr, ptr %10, align 8, !tbaa !20
  %78 = getelementptr inbounds nuw %struct.CONF_VALUE, ptr %77, i32 0, i32 2
  %79 = load ptr, ptr %78, align 8, !tbaa !25
  %80 = getelementptr inbounds nuw %struct.CONF_VALUE, ptr %9, i32 0, i32 2
  store ptr %79, ptr %80, align 8, !tbaa !25
  %81 = call ptr @GENERAL_SUBTREE_new()
  store ptr %81, ptr %13, align 8, !tbaa !16
  %82 = load ptr, ptr %13, align 8, !tbaa !16
  %83 = icmp eq ptr %82, null
  br i1 %83, label %84, label %85

84:                                               ; preds = %76
  call void @ERR_new()
  call void @ERR_set_debug(ptr noundef @.str.2, i32 noundef 177, ptr noundef @__func__.v2i_NAME_CONSTRAINTS)
  call void (i32, i32, ptr, ...) @ERR_set_error(i32 noundef 34, i32 noundef 524301, ptr noundef null)
  br label %120

85:                                               ; preds = %76
  %86 = load ptr, ptr %13, align 8, !tbaa !16
  %87 = getelementptr inbounds nuw %struct.GENERAL_SUBTREE_st, ptr %86, i32 0, i32 0
  %88 = load ptr, ptr %87, align 8, !tbaa !26
  %89 = load ptr, ptr %5, align 8, !tbaa !3
  %90 = load ptr, ptr %6, align 8, !tbaa !8
  %91 = call ptr @v2i_GENERAL_NAME_ex(ptr noundef %88, ptr noundef %89, ptr noundef %90, ptr noundef %9, i32 noundef 1)
  %92 = icmp ne ptr %91, null
  br i1 %92, label %94, label %93

93:                                               ; preds = %85
  call void @ERR_new()
  call void @ERR_set_debug(ptr noundef @.str.2, i32 noundef 181, ptr noundef @__func__.v2i_NAME_CONSTRAINTS)
  call void (i32, i32, ptr, ...) @ERR_set_error(i32 noundef 34, i32 noundef 524322, ptr noundef null)
  br label %120

94:                                               ; preds = %85
  %95 = load ptr, ptr %11, align 8, !tbaa !12
  %96 = load ptr, ptr %95, align 8, !tbaa !30
  %97 = icmp eq ptr %96, null
  br i1 %97, label %98, label %101

98:                                               ; preds = %94
  %99 = call ptr @OPENSSL_sk_new_null()
  %100 = load ptr, ptr %11, align 8, !tbaa !12
  store ptr %99, ptr %100, align 8, !tbaa !30
  br label %101

101:                                              ; preds = %98, %94
  %102 = load ptr, ptr %11, align 8, !tbaa !12
  %103 = load ptr, ptr %102, align 8, !tbaa !30
  %104 = icmp eq ptr %103, null
  br i1 %104, label %113, label %105

105:                                              ; preds = %101
  %106 = load ptr, ptr %11, align 8, !tbaa !12
  %107 = load ptr, ptr %106, align 8, !tbaa !30
  %108 = call ptr @ossl_check_GENERAL_SUBTREE_sk_type(ptr noundef %107)
  %109 = load ptr, ptr %13, align 8, !tbaa !16
  %110 = call ptr @ossl_check_GENERAL_SUBTREE_type(ptr noundef %109)
  %111 = call i32 @OPENSSL_sk_push(ptr noundef %108, ptr noundef %110)
  %112 = icmp ne i32 %111, 0
  br i1 %112, label %114, label %113

113:                                              ; preds = %105, %101
  call void @ERR_new()
  call void @ERR_set_debug(ptr noundef @.str.2, i32 noundef 187, ptr noundef @__func__.v2i_NAME_CONSTRAINTS)
  call void (i32, i32, ptr, ...) @ERR_set_error(i32 noundef 34, i32 noundef 524303, ptr noundef null)
  br label %120

114:                                              ; preds = %105
  store ptr null, ptr %13, align 8, !tbaa !16
  br label %115

115:                                              ; preds = %114
  %116 = load i32, ptr %8, align 4, !tbaa !18
  %117 = add nsw i32 %116, 1
  store i32 %117, ptr %8, align 4, !tbaa !18
  br label %20, !llvm.loop !32

118:                                              ; preds = %20
  %119 = load ptr, ptr %12, align 8, !tbaa !14
  store ptr %119, ptr %4, align 8
  store i32 1, ptr %14, align 4
  br label %123

120:                                              ; preds = %113, %93, %84, %74, %18
  %121 = load ptr, ptr %12, align 8, !tbaa !14
  call void @NAME_CONSTRAINTS_free(ptr noundef %121)
  %122 = load ptr, ptr %13, align 8, !tbaa !16
  call void @GENERAL_SUBTREE_free(ptr noundef %122)
  store ptr null, ptr %4, align 8
  store i32 1, ptr %14, align 4
  br label %123

123:                                              ; preds = %120, %118
  call void @llvm.lifetime.end.p0(i64 8, ptr %13) #6
  call void @llvm.lifetime.end.p0(i64 8, ptr %12) #6
  call void @llvm.lifetime.end.p0(i64 8, ptr %11) #6
  call void @llvm.lifetime.end.p0(i64 8, ptr %10) #6
  call void @llvm.lifetime.end.p0(i64 24, ptr %9) #6
  call void @llvm.lifetime.end.p0(i64 4, ptr %8) #6
  %124 = load ptr, ptr %4, align 8
  ret ptr %124
}