; Function Attrs: nounwind uwtable
define internal ptr @v2i_NAME_CONSTRAINTS(ptr noundef %0, ptr noundef %1, ptr noundef %2) #1 {
  %4 = alloca %struct.CONF_VALUE, align 8
  call void @llvm.lifetime.start.p0(i64 24, ptr nonnull %4) #9
  %5 = tail call ptr @ASN1_item_new(ptr noundef nonnull @NAME_CONSTRAINTS_it.local_it) #9
  %6 = icmp eq ptr %5, null
  br i1 %6, label %12, label %.preheader

.preheader:                                       ; preds = %3
  %7 = tail call i32 @OPENSSL_sk_num(ptr noundef %2) #9
  %8 = icmp sgt i32 %7, 0
  br i1 %8, label %.lr.ph, label %.loopexit

.lr.ph:                                           ; preds = %.preheader
  %9 = getelementptr inbounds nuw i8, ptr %4, i64 8
  %10 = getelementptr inbounds nuw i8, ptr %5, i64 8
  %11 = getelementptr inbounds nuw i8, ptr %4, i64 16
  br label %17

12:                                               ; preds = %3
  tail call void @ERR_new() #9
  tail call void @ERR_set_debug(ptr noundef nonnull @.str.2, i32 noundef 159, ptr noundef nonnull @__func__.v2i_NAME_CONSTRAINTS) #9
  tail call void (i32, i32, ptr, ...) @ERR_set_error(i32 noundef 34, i32 noundef 524301, ptr noundef null) #9
  br label %53

13:                                               ; preds = %.thread
  %14 = add nuw nsw i32 %.02938, 1
  %15 = call i32 @OPENSSL_sk_num(ptr noundef %2) #9
  %16 = icmp slt i32 %14, %15
  br i1 %16, label %17, label %.loopexit, !llvm.loop !3

17:                                               ; preds = %.lr.ph, %13
  %.02938 = phi i32 [ 0, %.lr.ph ], [ %14, %13 ]
  %18 = call ptr @OPENSSL_sk_value(ptr noundef %2, i32 noundef %.02938) #9
  %19 = getelementptr inbounds nuw i8, ptr %18, i64 8
  %20 = load ptr, ptr %19, align 8, !tbaa !5
  %21 = call i32 @strncmp(ptr noundef nonnull dereferenceable(1) %20, ptr noundef nonnull dereferenceable(10) @.str.8, i64 noundef 9) #10
  %22 = icmp eq i32 %21, 0
  br i1 %22, label %23, label %26

23:                                               ; preds = %17
  %24 = getelementptr inbounds nuw i8, ptr %20, i64 9
  %25 = load i8, ptr %24, align 1, !tbaa !11
  %.not = icmp eq i8 %25, 0
  br i1 %.not, label %26, label %33

26:                                               ; preds = %23, %17
  %27 = call i32 @strncmp(ptr noundef nonnull dereferenceable(1) %20, ptr noundef nonnull dereferenceable(9) @.str.9, i64 noundef 8) #10
  %28 = icmp eq i32 %27, 0
  br i1 %28, label %29, label %32

29:                                               ; preds = %26
  %30 = getelementptr inbounds nuw i8, ptr %20, i64 8
  %31 = load i8, ptr %30, align 1, !tbaa !11
  %.not33 = icmp eq i8 %31, 0
  br i1 %.not33, label %32, label %33

32:                                               ; preds = %29, %26
  call void @ERR_new() #9
  call void @ERR_set_debug(ptr noundef nonnull @.str.2, i32 noundef 171, ptr noundef nonnull @__func__.v2i_NAME_CONSTRAINTS) #9
  call void (i32, i32, ptr, ...) @ERR_set_error(i32 noundef 34, i32 noundef 143, ptr noundef null) #9
  br label %53

33:                                               ; preds = %29, %23
  %.sink = phi i64 [ 10, %23 ], [ 9, %29 ]
  %.027 = phi ptr [ %5, %23 ], [ %10, %29 ]
  %34 = getelementptr inbounds nuw i8, ptr %20, i64 %.sink
  store ptr %34, ptr %9, align 8, !tbaa !5
  %35 = getelementptr inbounds nuw i8, ptr %18, i64 16
  %36 = load ptr, ptr %35, align 8, !tbaa !12
  store ptr %36, ptr %11, align 8, !tbaa !12
  %37 = call ptr @ASN1_item_new(ptr noundef nonnull @GENERAL_SUBTREE_it.local_it) #9
  %38 = icmp eq ptr %37, null
  br i1 %38, label %39, label %40

39:                                               ; preds = %33
  call void @ERR_new() #9
  call void @ERR_set_debug(ptr noundef nonnull @.str.2, i32 noundef 177, ptr noundef nonnull @__func__.v2i_NAME_CONSTRAINTS) #9
  call void (i32, i32, ptr, ...) @ERR_set_error(i32 noundef 34, i32 noundef 524301, ptr noundef null) #9
  br label %53

40:                                               ; preds = %33
  %41 = load ptr, ptr %37, align 8, !tbaa !13
  %42 = call ptr @v2i_GENERAL_NAME_ex(ptr noundef %41, ptr noundef %0, ptr noundef %1, ptr noundef nonnull %4, i32 noundef 1) #9
  %.not34 = icmp eq ptr %42, null
  br i1 %.not34, label %43, label %44

43:                                               ; preds = %40
  call void @ERR_new() #9
  call void @ERR_set_debug(ptr noundef nonnull @.str.2, i32 noundef 181, ptr noundef nonnull @__func__.v2i_NAME_CONSTRAINTS) #9
  call void (i32, i32, ptr, ...) @ERR_set_error(i32 noundef 34, i32 noundef 524322, ptr noundef null) #9
  br label %53

44:                                               ; preds = %40
  %45 = load ptr, ptr %.027, align 8, !tbaa !17
  %46 = icmp eq ptr %45, null
  br i1 %46, label %47, label %.thread

47:                                               ; preds = %44
  %48 = call ptr @OPENSSL_sk_new_null() #9
  store ptr %48, ptr %.027, align 8, !tbaa !17
  %49 = icmp eq ptr %48, null
  br i1 %49, label %52, label %.thread

.thread:                                          ; preds = %44, %47
  %50 = phi ptr [ %48, %47 ], [ %45, %44 ]
  %51 = call i32 @OPENSSL_sk_push(ptr noundef nonnull %50, ptr noundef nonnull %37) #9
  %.not35 = icmp eq i32 %51, 0
  br i1 %.not35, label %52, label %13

52:                                               ; preds = %.thread, %47
  call void @ERR_new() #9
  call void @ERR_set_debug(ptr noundef nonnull @.str.2, i32 noundef 187, ptr noundef nonnull @__func__.v2i_NAME_CONSTRAINTS) #9
  call void (i32, i32, ptr, ...) @ERR_set_error(i32 noundef 34, i32 noundef 524303, ptr noundef null) #9
  br label %53

53:                                               ; preds = %52, %43, %39, %32, %12
  %.0 = phi ptr [ null, %12 ], [ null, %39 ], [ %37, %52 ], [ %37, %43 ], [ null, %32 ]
  call void @ASN1_item_free(ptr noundef %5, ptr noundef nonnull @NAME_CONSTRAINTS_it.local_it) #9
  call void @ASN1_item_free(ptr noundef %.0, ptr noundef nonnull @GENERAL_SUBTREE_it.local_it) #9
  br label %.loopexit

.loopexit:                                        ; preds = %13, %.preheader, %53
  %.028 = phi ptr [ null, %53 ], [ %5, %.preheader ], [ %5, %13 ]
  call void @llvm.lifetime.end.p0(i64 24, ptr nonnull %4) #9
  ret ptr %.028
}